; Function Attrs: nounwind uwtable
define hidden void @X11_GetBorderValues(ptr noundef captures(none) %0) local_unnamed_addr #1 {
  %2 = alloca i64, align 8
  %3 = alloca i32, align 4
  %4 = alloca i64, align 8
  %5 = alloca i64, align 8
  %6 = alloca ptr, align 8
  %7 = getelementptr inbounds nuw i8, ptr %0, i64 336
  %8 = load ptr, ptr %7, align 8
  %9 = load ptr, ptr %8, align 8
  call void @llvm.lifetime.start.p0(i64 8, ptr nonnull %2) #12
  call void @llvm.lifetime.start.p0(i64 4, ptr nonnull %3) #12
  call void @llvm.lifetime.start.p0(i64 8, ptr nonnull %4) #12
  call void @llvm.lifetime.start.p0(i64 8, ptr nonnull %5) #12
  call void @llvm.lifetime.start.p0(i64 8, ptr nonnull %6) #12
  %10 = load ptr, ptr %0, align 8
  %11 = getelementptr inbounds nuw i8, ptr %10, i64 72
  %12 = load i64, ptr %11, align 8
  %13 = and i64 %12, 16
  %.not = icmp eq i64 %13, 0
  br i1 %.not, label %14, label %46

14:                                               ; preds = %1
  %15 = load ptr, ptr @X11_XGetWindowProperty, align 8
  %16 = getelementptr inbounds nuw i8, ptr %0, i64 8
  %17 = load i64, ptr %16, align 8
  %18 = getelementptr inbounds nuw i8, ptr %8, i64 408
  %19 = load i64, ptr %18, align 8
  %20 = call i32 %15(ptr noundef %9, i64 noundef %17, i64 noundef %19, i64 noundef 0, i64 noundef 16, i32 noundef 0, i64 noundef 6, ptr noundef nonnull %2, ptr noundef nonnull %3, ptr noundef nonnull %4, ptr noundef nonnull %5, ptr noundef nonnull %6) #12
  %21 = icmp eq i32 %20, 0
  br i1 %21, label %22, label %48

22:                                               ; preds = %14
  %23 = load i64, ptr %2, align 8
  %24 = icmp ne i64 %23, 0
  %25 = load i64, ptr %4, align 8
  %26 = icmp eq i64 %25, 4
  %or.cond = select i1 %24, i1 %26, i1 false
  %.pre = load ptr, ptr %6, align 8
  br i1 %or.cond, label %27, label %43

27:                                               ; preds = %22
  %28 = load i64, ptr %.pre, align 8
  %29 = trunc i64 %28 to i32
  %30 = getelementptr inbounds nuw i8, ptr %0, i64 100
  store i32 %29, ptr %30, align 4
  %31 = getelementptr inbounds nuw i8, ptr %.pre, i64 8
  %32 = load i64, ptr %31, align 8
  %33 = trunc i64 %32 to i32
  %34 = getelementptr inbounds nuw i8, ptr %0, i64 104
  store i32 %33, ptr %34, align 8
  %35 = getelementptr inbounds nuw i8, ptr %.pre, i64 16
  %36 = load i64, ptr %35, align 8
  %37 = trunc i64 %36 to i32
  %38 = getelementptr inbounds nuw i8, ptr %0, i64 108
  store i32 %37, ptr %38, align 4
  %39 = getelementptr inbounds nuw i8, ptr %.pre, i64 24
  %40 = load i64, ptr %39, align 8
  %41 = trunc i64 %40 to i32
  %42 = getelementptr inbounds nuw i8, ptr %0, i64 112
  store i32 %41, ptr %42, align 8
  br label %43

43:                                               ; preds = %27, %22
  %44 = load ptr, ptr @X11_XFree, align 8
  %45 = call i32 %44(ptr noundef %.pre) #12
  br label %48

46:                                               ; preds = %1
  %47 = getelementptr inbounds nuw i8, ptr %0, i64 100
  tail call void @llvm.memset.p0.i64(ptr noundef nonnull align 4 dereferenceable(16) %47, i8 0, i64 16, i1 false)
  br label %48

48:                                               ; preds = %14, %43, %46
  call void @llvm.lifetime.end.p0(i64 8, ptr nonnull %6) #12
  call void @llvm.lifetime.end.p0(i64 8, ptr nonnull %5) #12
  call void @llvm.lifetime.end.p0(i64 8, ptr nonnull %4) #12
  call void @llvm.lifetime.end.p0(i64 4, ptr nonnull %3) #12
  call void @llvm.lifetime.end.p0(i64 8, ptr nonnull %2) #12
  ret void
}